
obj/jal.o:     file format elf32-littleriscv


Disassembly of section .text.init:

00000000 <_start>:
   0:	0040006f          	j	4 <reset_vector>

00000004 <reset_vector>:
   4:	00000093          	li	ra,0
   8:	00000113          	li	sp,0
   c:	00000193          	li	gp,0
  10:	00000213          	li	tp,0
  14:	00000293          	li	t0,0
  18:	00000313          	li	t1,0
  1c:	00000393          	li	t2,0
  20:	00000413          	li	s0,0
  24:	00000493          	li	s1,0
  28:	00000513          	li	a0,0
  2c:	00000593          	li	a1,0
  30:	00000613          	li	a2,0
  34:	00000693          	li	a3,0
  38:	00000713          	li	a4,0
  3c:	00000793          	li	a5,0
  40:	00000813          	li	a6,0
  44:	00000893          	li	a7,0
  48:	00000913          	li	s2,0
  4c:	00000993          	li	s3,0
  50:	00000a13          	li	s4,0
  54:	00000a93          	li	s5,0
  58:	00000b13          	li	s6,0
  5c:	00000b93          	li	s7,0
  60:	00000c13          	li	s8,0
  64:	00000c93          	li	s9,0
  68:	00000d13          	li	s10,0
  6c:	00000d93          	li	s11,0
  70:	00000e13          	li	t3,0
  74:	00000e93          	li	t4,0
  78:	00000f13          	li	t5,0
  7c:	00000f93          	li	t6,0
  80:	00000013          	nop
  84:	00000013          	nop

00000088 <test_2>:
  88:	00200193          	li	gp,2
  8c:	00000093          	li	ra,0
  90:	0100026f          	jal	tp,a0 <target_2>

00000094 <linkaddr_2>:
  94:	00000013          	nop
  98:	00000013          	nop
  9c:	0400006f          	j	dc <fail>

000000a0 <target_2>:
  a0:	00000117          	auipc	sp,0x0
  a4:	ff410113          	addi	sp,sp,-12 # 94 <linkaddr_2>
  a8:	02411a63          	bne	sp,tp,dc <fail>

000000ac <test_3>:
  ac:	00100093          	li	ra,1
  b0:	0140006f          	j	c4 <test_3+0x18>
  b4:	00108093          	addi	ra,ra,1
  b8:	00108093          	addi	ra,ra,1
  bc:	00108093          	addi	ra,ra,1
  c0:	00108093          	addi	ra,ra,1
  c4:	00108093          	addi	ra,ra,1
  c8:	00108093          	addi	ra,ra,1
  cc:	00300393          	li	t2,3
  d0:	00300193          	li	gp,3
  d4:	00709463          	bne	ra,t2,dc <fail>
  d8:	00301863          	bne	zero,gp,e8 <pass>

000000dc <fail>:
  dc:	00018513          	mv	a0,gp
  e0:	00010fb7          	lui	t6,0x10
  e4:	000f8067          	jr	t6 # 10000 <_end+0xe000>

000000e8 <pass>:
  e8:	55500193          	li	gp,1365
  ec:	00010fb7          	lui	t6,0x10
  f0:	000f8067          	jr	t6 # 10000 <_end+0xe000>
  f4:	00000063          	beqz	zero,f4 <pass+0xc>
  f8:	0000                	unimp
  fa:	0000                	unimp
  fc:	0000                	unimp
  fe:	0000                	unimp
 100:	0000                	unimp
 102:	0000                	unimp
